target datalayout = "e-m:e-p270:32:32-p271:32:32-p272:64:64-i64:64-i128:128-f80:128-n8:16:32:64-S128"
target triple = "x86_64-unknown-linux-gnu"

@.str.10 = private unnamed_addr constant [10 x i8] c"<unknown>\00", align 1
@.str.44 = private unnamed_addr constant [8 x i8] c"success\00", align 1
@.str.45 = private unnamed_addr constant [6 x i8] c"EPERM\00", align 1
@.str.46 = private unnamed_addr constant [4 x i8] c"EIO\00", align 1
@.str.47 = private unnamed_addr constant [7 x i8] c"ENOMEM\00", align 1
@.str.48 = private unnamed_addr constant [7 x i8] c"EINVAL\00", align 1
@.str.49 = private unnamed_addr constant [7 x i8] c"ENOSPC\00", align 1
@.str.50 = private unnamed_addr constant [10 x i8] c"EOVERFLOW\00", align 1
@.str.51 = private unnamed_addr constant [8 x i8] c"ENOTSUP\00", align 1
@.str.52 = private unnamed_addr constant [10 x i8] c"ESHUTDOWN\00", align 1

; Function Attrs: nounwind sspstrong uwtable
define dso_local ptr @nbd_err_lookup(i32 noundef %err) #0 {
entry:
  %retval = alloca ptr, align 8
  %err.addr = alloca i32, align 4
  store i32 %err, ptr %err.addr, align 4
  %0 = load i32, ptr %err.addr, align 4
  switch i32 %0, label %sw.default [
    i32 0, label %sw.bb
    i32 1, label %sw.bb1
    i32 5, label %sw.bb2
    i32 12, label %sw.bb3
    i32 22, label %sw.bb4
    i32 28, label %sw.bb5
    i32 75, label %sw.bb6
    i32 95, label %sw.bb7
    i32 108, label %sw.bb8
  ]

sw.bb:                                            ; preds = %entry
  store ptr @.str.44, ptr %retval, align 8
  br label %return

sw.bb1:                                           ; preds = %entry
  store ptr @.str.45, ptr %retval, align 8
  br label %return

sw.bb2:                                           ; preds = %entry
  store ptr @.str.46, ptr %retval, align 8
  br label %return

sw.bb3:                                           ; preds = %entry
  store ptr @.str.47, ptr %retval, align 8
  br label %return

sw.bb4:                                           ; preds = %entry
  store ptr @.str.48, ptr %retval, align 8
  br label %return

sw.bb5:                                           ; preds = %entry
  store ptr @.str.49, ptr %retval, align 8
  br label %return

sw.bb6:                                           ; preds = %entry
  store ptr @.str.50, ptr %retval, align 8
  br label %return

sw.bb7:                                           ; preds = %entry
  store ptr @.str.51, ptr %retval, align 8
  br label %return

sw.bb8:                                           ; preds = %entry
  store ptr @.str.52, ptr %retval, align 8
  br label %return

sw.default:                                       ; preds = %entry
  store ptr @.str.10, ptr %retval, align 8
  br label %return

return:                                           ; preds = %sw.default, %sw.bb8, %sw.bb7, %sw.bb6, %sw.bb5, %sw.bb4, %sw.bb3, %sw.bb2, %sw.bb1, %sw.bb
  %1 = load ptr, ptr %retval, align 8
  ret ptr %1
}