; Function Attrs: mustprogress nofree norecurse nosync nounwind sspstrong willreturn memory(none) uwtable
define dso_local noundef nonnull ptr @nbd_err_lookup(i32 noundef %err) local_unnamed_addr #3 {
entry:
  switch i32 %err, label %sw.default [
    i32 0, label %return
    i32 1, label %sw.bb1
    i32 5, label %sw.bb2
    i32 12, label %sw.bb3
    i32 22, label %sw.bb4
    i32 28, label %sw.bb5
    i32 75, label %sw.bb6
    i32 95, label %sw.bb7
    i32 108, label %sw.bb8
  ]

sw.bb1:                                           ; preds = %entry
  br label %return

sw.bb2:                                           ; preds = %entry
  br label %return

sw.bb3:                                           ; preds = %entry
  br label %return

sw.bb4:                                           ; preds = %entry
  br label %return

sw.bb5:                                           ; preds = %entry
  br label %return

sw.bb6:                                           ; preds = %entry
  br label %return

sw.bb7:                                           ; preds = %entry
  br label %return

sw.bb8:                                           ; preds = %entry
  br label %return

sw.default:                                       ; preds = %entry
  br label %return

return:                                           ; preds = %entry, %sw.default, %sw.bb8, %sw.bb7, %sw.bb6, %sw.bb5, %sw.bb4, %sw.bb3, %sw.bb2, %sw.bb1
  %retval.0 = phi ptr [ @.str.10, %sw.default ], [ @.str.52, %sw.bb8 ], [ @.str.51, %sw.bb7 ], [ @.str.50, %sw.bb6 ], [ @.str.49, %sw.bb5 ], [ @.str.48, %sw.bb4 ], [ @.str.47, %sw.bb3 ], [ @.str.46, %sw.bb2 ], [ @.str.45, %sw.bb1 ], [ @.str.44, %entry ]
  ret ptr %retval.0
}